target datalayout = "e-m:e-p270:32:32-p271:32:32-p272:64:64-i64:64-i128:128-f80:128-n8:16:32:64-S128"
target triple = "x86_64-pc-linux-gnu"

%class.StubCodeMark = type { ptr, ptr }
%class.StubCodeGenerator = type { ptr, i8, ptr }
%class.CodeSection = type { ptr, ptr, ptr, ptr, ptr, ptr, ptr, ptr, i8, i8, i32, i8, ptr }
%class.AbstractAssembler = type { ptr, ptr, ptr }

@.str = private unnamed_addr constant [13 x i8] c"StubRoutines\00", align 1
@CodeEntryAlignment = external global i64, align 8

; Function Attrs: mustprogress nounwind uwtable
define linkonce_odr hidden noundef ptr @_ZNK11CodeSection3endEv(ptr noundef nonnull align 8 dereferenceable(88) %0) #1 comdat align 2 {
  %2 = alloca ptr, align 8
  store ptr %0, ptr %2, align 8
  %3 = load ptr, ptr %2, align 8
  %4 = getelementptr inbounds %class.CodeSection, ptr %3, i32 0, i32 2
  %5 = load ptr, ptr %4, align 8
  ret ptr %5
}

; Function Attrs: mustprogress nounwind uwtable
define linkonce_odr hidden noundef ptr @_ZNK17AbstractAssembler12code_sectionEv(ptr noundef nonnull align 8 dereferenceable(24) %0) #1 comdat align 2 {
  %2 = alloca ptr, align 8
  store ptr %0, ptr %2, align 8
  %3 = load ptr, ptr %2, align 8
  %4 = getelementptr inbounds %class.AbstractAssembler, ptr %3, i32 0, i32 1
  %5 = load ptr, ptr %4, align 8
  ret ptr %5
}

; Function Attrs: mustprogress nounwind uwtable
define linkonce_odr hidden noundef ptr @_ZNK17AbstractAssembler2pcEv(ptr noundef nonnull align 8 dereferenceable(24) %0) #1 comdat align 2 {
  %2 = alloca ptr, align 8
  store ptr %0, ptr %2, align 8
  %3 = load ptr, ptr %2, align 8
  %4 = call noundef ptr @_ZNK17AbstractAssembler12code_sectionEv(ptr noundef nonnull align 8 dereferenceable(24) %3)
  %5 = call noundef ptr @_ZNK11CodeSection3endEv(ptr noundef nonnull align 8 dereferenceable(88) %4)
  ret ptr %5
}

; Function Attrs: mustprogress nounwind uwtable
define hidden noundef ptr @_ZN13StubGenerator28generate_compress_perm_tableEPKci(ptr noundef nonnull align 8 dereferenceable(24) %0, ptr noundef %1, i32 noundef %2) #1 align 2 {
  %4 = alloca ptr, align 8
  %5 = alloca ptr, align 8
  %6 = alloca i32, align 4
  %7 = alloca %class.StubCodeMark, align 8
  %8 = alloca ptr, align 8
  %9 = alloca i32, align 4
  %10 = alloca i32, align 4
  %11 = alloca i32, align 4
  %12 = alloca i32, align 4
  %13 = alloca i32, align 4
  %14 = alloca i32, align 4
  store ptr %0, ptr %4, align 8
  store ptr %1, ptr %5, align 8
  store i32 %2, ptr %6, align 4
  %15 = load ptr, ptr %4, align 8
  %16 = getelementptr inbounds %class.StubCodeGenerator, ptr %15, i32 0, i32 2
  %17 = load ptr, ptr %16, align 8
  %18 = load i64, ptr @CodeEntryAlignment, align 8
  %19 = trunc i64 %18 to i32
  call void @_ZN14MacroAssembler5alignEj(ptr noundef nonnull align 8 dereferenceable(40) %17, i32 noundef %19)
  %20 = load ptr, ptr %5, align 8
  call void @_ZN12StubCodeMarkC1EP17StubCodeGeneratorPKcS3_(ptr noundef nonnull align 8 dereferenceable(16) %7, ptr noundef %15, ptr noundef @.str, ptr noundef %20)
  %21 = getelementptr inbounds %class.StubCodeGenerator, ptr %15, i32 0, i32 2
  %22 = load ptr, ptr %21, align 8
  %23 = call noundef ptr @_ZNK17AbstractAssembler2pcEv(ptr noundef nonnull align 8 dereferenceable(24) %22)
  store ptr %23, ptr %8, align 8
  %24 = load i32, ptr %6, align 4
  %25 = icmp eq i32 %24, 32
  br i1 %25, label %26, label %65

26:                                               ; preds = %3
  store i32 0, ptr %9, align 4
  br label %27

27:                                               ; preds = %61, %26
  %28 = load i32, ptr %9, align 4
  %29 = icmp slt i32 %28, 256
  br i1 %29, label %30, label %64

30:                                               ; preds = %27
  store i32 0, ptr %10, align 4
  store i32 0, ptr %11, align 4
  br label %31

31:                                               ; preds = %47, %30
  %32 = load i32, ptr %11, align 4
  %33 = icmp slt i32 %32, 8
  br i1 %33, label %34, label %50

34:                                               ; preds = %31
  %35 = load i32, ptr %9, align 4
  %36 = load i32, ptr %11, align 4
  %37 = shl i32 1, %36
  %38 = and i32 %35, %37
  %39 = icmp ne i32 %38, 0
  br i1 %39, label %40, label %46

40:                                               ; preds = %34
  %41 = getelementptr inbounds %class.StubCodeGenerator, ptr %15, i32 0, i32 2
  %42 = load ptr, ptr %41, align 8
  %43 = load i32, ptr %11, align 4
  call void @_ZN9Assembler9emit_dataEiN9relocInfo9relocTypeEi(ptr noundef nonnull align 8 dereferenceable(40) %42, i32 noundef %43, i32 noundef 0, i32 noundef 0)
  %44 = load i32, ptr %10, align 4
  %45 = add nsw i32 %44, 1
  store i32 %45, ptr %10, align 4
  br label %46

46:                                               ; preds = %40, %34
  br label %47

47:                                               ; preds = %46
  %48 = load i32, ptr %11, align 4
  %49 = add nsw i32 %48, 1
  store i32 %49, ptr %11, align 4
  br label %31, !llvm.loop !6

50:                                               ; preds = %31
  br label %51

51:                                               ; preds = %57, %50
  %52 = load i32, ptr %10, align 4
  %53 = icmp slt i32 %52, 8
  br i1 %53, label %54, label %60

54:                                               ; preds = %51
  %55 = getelementptr inbounds %class.StubCodeGenerator, ptr %15, i32 0, i32 2
  %56 = load ptr, ptr %55, align 8
  call void @_ZN9Assembler9emit_dataEiN9relocInfo9relocTypeEi(ptr noundef nonnull align 8 dereferenceable(40) %56, i32 noundef -1, i32 noundef 0, i32 noundef 0)
  br label %57

57:                                               ; preds = %54
  %58 = load i32, ptr %10, align 4
  %59 = add nsw i32 %58, 1
  store i32 %59, ptr %10, align 4
  br label %51, !llvm.loop !8

60:                                               ; preds = %51
  br label %61

61:                                               ; preds = %60
  %62 = load i32, ptr %9, align 4
  %63 = add nsw i32 %62, 1
  store i32 %63, ptr %9, align 4
  br label %27, !llvm.loop !9

64:                                               ; preds = %27
  br label %110

65:                                               ; preds = %3
  store i32 0, ptr %12, align 4
  br label %66

66:                                               ; preds = %106, %65
  %67 = load i32, ptr %12, align 4
  %68 = icmp slt i32 %67, 16
  br i1 %68, label %69, label %109

69:                                               ; preds = %66
  store i32 0, ptr %13, align 4
  store i32 0, ptr %14, align 4
  br label %70

70:                                               ; preds = %92, %69
  %71 = load i32, ptr %14, align 4
  %72 = icmp slt i32 %71, 4
  br i1 %72, label %73, label %95

73:                                               ; preds = %70
  %74 = load i32, ptr %12, align 4
  %75 = load i32, ptr %14, align 4
  %76 = shl i32 1, %75
  %77 = and i32 %74, %76
  %78 = icmp ne i32 %77, 0
  br i1 %78, label %79, label %91

79:                                               ; preds = %73
  %80 = getelementptr inbounds %class.StubCodeGenerator, ptr %15, i32 0, i32 2
  %81 = load ptr, ptr %80, align 8
  %82 = load i32, ptr %14, align 4
  %83 = mul nsw i32 2, %82
  call void @_ZN9Assembler9emit_dataEiN9relocInfo9relocTypeEi(ptr noundef nonnull align 8 dereferenceable(40) %81, i32 noundef %83, i32 noundef 0, i32 noundef 0)
  %84 = getelementptr inbounds %class.StubCodeGenerator, ptr %15, i32 0, i32 2
  %85 = load ptr, ptr %84, align 8
  %86 = load i32, ptr %14, align 4
  %87 = mul nsw i32 2, %86
  %88 = add nsw i32 %87, 1
  call void @_ZN9Assembler9emit_dataEiN9relocInfo9relocTypeEi(ptr noundef nonnull align 8 dereferenceable(40) %85, i32 noundef %88, i32 noundef 0, i32 noundef 0)
  %89 = load i32, ptr %13, align 4
  %90 = add nsw i32 %89, 1
  store i32 %90, ptr %13, align 4
  br label %91

91:                                               ; preds = %79, %73
  br label %92

92:                                               ; preds = %91
  %93 = load i32, ptr %14, align 4
  %94 = add nsw i32 %93, 1
  store i32 %94, ptr %14, align 4
  br label %70, !llvm.loop !10

95:                                               ; preds = %70
  br label %96

96:                                               ; preds = %102, %95
  %97 = load i32, ptr %13, align 4
  %98 = icmp slt i32 %97, 4
  br i1 %98, label %99, label %105

99:                                               ; preds = %96
  %100 = getelementptr inbounds %class.StubCodeGenerator, ptr %15, i32 0, i32 2
  %101 = load ptr, ptr %100, align 8
  call void @_ZN9Assembler11emit_data64ElN9relocInfo9relocTypeEi(ptr noundef nonnull align 8 dereferenceable(40) %101, i64 noundef -1, i32 noundef 0, i32 noundef 0)
  br label %102

102:                                              ; preds = %99
  %103 = load i32, ptr %13, align 4
  %104 = add nsw i32 %103, 1
  store i32 %104, ptr %13, align 4
  br label %96, !llvm.loop !11

105:                                              ; preds = %96
  br label %106

106:                                              ; preds = %105
  %107 = load i32, ptr %12, align 4
  %108 = add nsw i32 %107, 1
  store i32 %108, ptr %12, align 4
  br label %66, !llvm.loop !12

109:                                              ; preds = %66
  br label %110

110:                                              ; preds = %109, %64
  %111 = load ptr, ptr %8, align 8
  call void @_ZN12StubCodeMarkD1Ev(ptr noundef nonnull align 8 dereferenceable(16) %7) #7
  ret ptr %111
}