; Function Attrs: mustprogress nounwind uwtable
define hidden noundef ptr @_ZN13StubGenerator28generate_compress_perm_tableEPKci(ptr noundef nonnull align 8 dereferenceable(24) %0, ptr noundef %1, i32 noundef %2) local_unnamed_addr #0 align 2 {
  %4 = alloca %class.StubCodeMark, align 8
  %5 = getelementptr inbounds i8, ptr %0, i64 16
  %6 = load ptr, ptr %5, align 8
  %7 = load i64, ptr @CodeEntryAlignment, align 8
  %8 = trunc i64 %7 to i32
  tail call void @_ZN14MacroAssembler5alignEj(ptr noundef nonnull align 8 dereferenceable(40) %6, i32 noundef %8) #12
  call void @_ZN12StubCodeMarkC1EP17StubCodeGeneratorPKcS3_(ptr noundef nonnull align 8 dereferenceable(16) %4, ptr noundef nonnull %0, ptr noundef nonnull @.str, ptr noundef %1) #12
  %9 = load ptr, ptr %5, align 8
  %10 = getelementptr inbounds i8, ptr %9, i64 8
  %11 = load ptr, ptr %10, align 8
  %12 = getelementptr inbounds i8, ptr %11, i64 16
  %13 = load ptr, ptr %12, align 8
  %14 = icmp eq i32 %2, 32
  br i1 %14, label %.preheader32, label %.preheader35

.preheader32:                                     ; preds = %3, %._crit_edge46
  %.03047 = phi i32 [ %26, %._crit_edge46 ], [ 0, %3 ]
  br label %16

.preheader:                                       ; preds = %22
  %15 = icmp slt i32 %.128, 8
  br i1 %15, label %.lr.ph45, label %._crit_edge46

16:                                               ; preds = %.preheader32, %22
  %.02643 = phi i32 [ 0, %.preheader32 ], [ %23, %22 ]
  %.02742 = phi i32 [ 0, %.preheader32 ], [ %.128, %22 ]
  %17 = shl nuw nsw i32 1, %.02643
  %18 = and i32 %17, %.03047
  %.not31 = icmp eq i32 %18, 0
  br i1 %.not31, label %22, label %19

19:                                               ; preds = %16
  %20 = load ptr, ptr %5, align 8
  call void @_ZN9Assembler9emit_dataEiN9relocInfo9relocTypeEi(ptr noundef nonnull align 8 dereferenceable(40) %20, i32 noundef %.02643, i32 noundef 0, i32 noundef 0) #12
  %21 = add nsw i32 %.02742, 1
  br label %22

22:                                               ; preds = %16, %19
  %.128 = phi i32 [ %21, %19 ], [ %.02742, %16 ]
  %23 = add nuw nsw i32 %.02643, 1
  %exitcond51.not = icmp eq i32 %23, 8
  br i1 %exitcond51.not, label %.preheader, label %16, !llvm.loop !6

.lr.ph45:                                         ; preds = %.preheader, %.lr.ph45
  %.22944 = phi i32 [ %25, %.lr.ph45 ], [ %.128, %.preheader ]
  %24 = load ptr, ptr %5, align 8
  call void @_ZN9Assembler9emit_dataEiN9relocInfo9relocTypeEi(ptr noundef nonnull align 8 dereferenceable(40) %24, i32 noundef -1, i32 noundef 0, i32 noundef 0) #12
  %25 = add i32 %.22944, 1
  %exitcond52.not = icmp eq i32 %25, 8
  br i1 %exitcond52.not, label %._crit_edge46, label %.lr.ph45, !llvm.loop !8

._crit_edge46:                                    ; preds = %.lr.ph45, %.preheader
  %26 = add nuw nsw i32 %.03047, 1
  %exitcond53.not = icmp eq i32 %26, 256
  br i1 %exitcond53.not, label %.loopexit, label %.preheader32, !llvm.loop !9

.preheader35:                                     ; preds = %3, %._crit_edge
  %.02541 = phi i32 [ %41, %._crit_edge ], [ 0, %3 ]
  br label %28

.preheader34:                                     ; preds = %37
  %27 = icmp slt i32 %.1, 4
  br i1 %27, label %.lr.ph, label %._crit_edge

28:                                               ; preds = %.preheader35, %37
  %.039 = phi i32 [ 0, %.preheader35 ], [ %38, %37 ]
  %.02438 = phi i32 [ 0, %.preheader35 ], [ %.1, %37 ]
  %29 = shl nuw nsw i32 1, %.039
  %30 = and i32 %29, %.02541
  %.not = icmp eq i32 %30, 0
  br i1 %.not, label %37, label %31

31:                                               ; preds = %28
  %32 = load ptr, ptr %5, align 8
  %33 = shl nuw nsw i32 %.039, 1
  call void @_ZN9Assembler9emit_dataEiN9relocInfo9relocTypeEi(ptr noundef nonnull align 8 dereferenceable(40) %32, i32 noundef %33, i32 noundef 0, i32 noundef 0) #12
  %34 = load ptr, ptr %5, align 8
  %35 = or disjoint i32 %33, 1
  call void @_ZN9Assembler9emit_dataEiN9relocInfo9relocTypeEi(ptr noundef nonnull align 8 dereferenceable(40) %34, i32 noundef %35, i32 noundef 0, i32 noundef 0) #12
  %36 = add nsw i32 %.02438, 1
  br label %37

37:                                               ; preds = %28, %31
  %.1 = phi i32 [ %36, %31 ], [ %.02438, %28 ]
  %38 = add nuw nsw i32 %.039, 1
  %exitcond.not = icmp eq i32 %38, 4
  br i1 %exitcond.not, label %.preheader34, label %28, !llvm.loop !10

.lr.ph:                                           ; preds = %.preheader34, %.lr.ph
  %.240 = phi i32 [ %40, %.lr.ph ], [ %.1, %.preheader34 ]
  %39 = load ptr, ptr %5, align 8
  call void @_ZN9Assembler11emit_data64ElN9relocInfo9relocTypeEi(ptr noundef nonnull align 8 dereferenceable(40) %39, i64 noundef -1, i32 noundef 0, i32 noundef 0) #12
  %40 = add i32 %.240, 1
  %exitcond49.not = icmp eq i32 %40, 4
  br i1 %exitcond49.not, label %._crit_edge, label %.lr.ph, !llvm.loop !11

._crit_edge:                                      ; preds = %.lr.ph, %.preheader34
  %41 = add nuw nsw i32 %.02541, 1
  %exitcond50.not = icmp eq i32 %41, 16
  br i1 %exitcond50.not, label %.loopexit, label %.preheader35, !llvm.loop !12

.loopexit:                                        ; preds = %._crit_edge, %._crit_edge46
  call void @_ZN12StubCodeMarkD1Ev(ptr noundef nonnull align 8 dereferenceable(16) %4) #12
  ret ptr %13
}